; Function Attrs: nounwind uwtable
define internal range(i32 1, 4) i32 @io_flush(ptr noundef %0) #0 {
  tail call void @lua_rawgeti(ptr noundef %0, i32 noundef -10001, i32 noundef 2) #9
  %2 = tail call ptr @lua_touserdata(ptr noundef %0, i32 noundef -1) #9
  %3 = load ptr, ptr %2, align 8, !tbaa !4
  %4 = icmp eq ptr %3, null
  br i1 %4, label %5, label %getiofile.exit

5:                                                ; preds = %1
  %6 = tail call i32 (ptr, ptr, ...) @luaL_error(ptr noundef %0, ptr noundef nonnull @.str.39, ptr noundef nonnull @.str.36) #9
  br label %getiofile.exit

getiofile.exit:                                   ; preds = %1, %5
  %7 = tail call i32 @fflush(ptr noundef %3)
  %.not = icmp eq i32 %7, 0
  br i1 %.not, label %8, label %9

8:                                                ; preds = %getiofile.exit
  tail call void @lua_pushboolean(ptr noundef %0, i32 noundef 1) #9
  br label %pushresult.exit

9:                                                ; preds = %getiofile.exit
  %10 = tail call ptr @__errno_location() #10
  %11 = load i32, ptr %10, align 4, !tbaa !9
  tail call void @lua_pushnil(ptr noundef %0) #9
  %12 = tail call ptr @strerror(i32 noundef %11) #9
  %13 = tail call ptr (ptr, ptr, ...) @lua_pushfstring(ptr noundef %0, ptr noundef nonnull @.str.19, ptr noundef %12) #9
  %14 = sext i32 %11 to i64
  tail call void @lua_pushinteger(ptr noundef %0, i64 noundef %14) #9
  br label %pushresult.exit

pushresult.exit:                                  ; preds = %8, %9
  %.0.i = phi i32 [ 1, %8 ], [ 3, %9 ]
  ret i32 %.0.i
}